; Function Attrs: mustprogress uwtable
define noundef i32 @_ZN6icu_7735SimpleFilteredSentenceBreakIterator12internalNextEi(ptr noundef nonnull align 8 captures(none) dereferenceable(56) %0, i32 noundef %1) local_unnamed_addr #2 align 2 {
  %3 = alloca i32, align 4
  %4 = icmp eq i32 %1, -1
  br i1 %4, label %38, label %5

5:                                                ; preds = %2
  %6 = getelementptr inbounds nuw i8, ptr %0, i64 32
  %7 = load ptr, ptr %6, align 8, !tbaa !11
  %8 = getelementptr inbounds nuw i8, ptr %7, i64 16
  %9 = load ptr, ptr %8, align 8, !tbaa !6
  %.not18 = icmp eq ptr %9, null
  br i1 %.not18, label %38, label %10

10:                                               ; preds = %5
  call void @llvm.lifetime.start.p0(i64 4, ptr nonnull %3) #14
  store i32 0, ptr %3, align 4, !tbaa !28
  %11 = getelementptr inbounds nuw i8, ptr %0, i64 48
  %12 = getelementptr inbounds nuw i8, ptr %0, i64 40
  %13 = load ptr, ptr %12, align 8, !tbaa !23
  %14 = load ptr, ptr %11, align 8, !tbaa !24
  store ptr null, ptr %11, align 8, !tbaa !24
  %15 = load ptr, ptr %13, align 8, !tbaa !3
  %16 = getelementptr inbounds nuw i8, ptr %15, i64 48
  %17 = load ptr, ptr %16, align 8
  %18 = call noundef ptr %17(ptr noundef nonnull align 8 dereferenceable(32) %13, ptr noundef %14, ptr noundef nonnull align 4 dereferenceable(4) %3)
  %19 = load ptr, ptr %11, align 8, !tbaa !24
  %.not.i.i = icmp eq ptr %19, null
  br i1 %.not.i.i, label %_ZN6icu_7735SimpleFilteredSentenceBreakIterator10resetStateER10UErrorCode.exit, label %20

20:                                               ; preds = %10
  %21 = call noundef ptr @utext_close_77(ptr noundef nonnull %19)
  br label %_ZN6icu_7735SimpleFilteredSentenceBreakIterator10resetStateER10UErrorCode.exit

_ZN6icu_7735SimpleFilteredSentenceBreakIterator10resetStateER10UErrorCode.exit: ; preds = %10, %20
  store ptr %18, ptr %11, align 8, !tbaa !24
  %22 = load i32, ptr %3, align 4, !tbaa !28
  %23 = icmp slt i32 %22, 1
  br i1 %23, label %24, label %.thread

24:                                               ; preds = %_ZN6icu_7735SimpleFilteredSentenceBreakIterator10resetStateER10UErrorCode.exit
  %25 = call i64 @utext_nativeLength_77(ptr noundef %18)
  %26 = sext i32 %1 to i64
  %.not = icmp eq i64 %25, %26
  br i1 %.not, label %.thread, label %.lr.ph

.lr.ph:                                           ; preds = %24, %28
  %.01219 = phi i32 [ %33, %28 ], [ %1, %24 ]
  %27 = call noundef i32 @_ZN6icu_7735SimpleFilteredSentenceBreakIterator16breakExceptionAtEi(ptr noundef nonnull align 8 dereferenceable(56) %0, i32 noundef %.01219)
  %cond1.not.not = icmp eq i32 %27, 0
  br i1 %cond1.not.not, label %.thread, label %28

28:                                               ; preds = %.lr.ph
  %29 = load ptr, ptr %12, align 8, !tbaa !23
  %30 = load ptr, ptr %29, align 8, !tbaa !3
  %31 = getelementptr inbounds nuw i8, ptr %30, i64 104
  %32 = load ptr, ptr %31, align 8
  %33 = call noundef i32 %32(ptr noundef nonnull align 8 dereferenceable(32) %29)
  %34 = icmp ne i32 %33, -1
  %35 = sext i32 %33 to i64
  %36 = icmp ne i64 %25, %35
  %37 = and i1 %34, %36
  br i1 %37, label %.lr.ph, label %.thread

.thread:                                          ; preds = %28, %.lr.ph, %24, %_ZN6icu_7735SimpleFilteredSentenceBreakIterator10resetStateER10UErrorCode.exit
  %.1 = phi i32 [ -1, %_ZN6icu_7735SimpleFilteredSentenceBreakIterator10resetStateER10UErrorCode.exit ], [ %1, %24 ], [ %33, %28 ], [ %.01219, %.lr.ph ]
  call void @llvm.lifetime.end.p0(i64 4, ptr nonnull %3) #14
  br label %38

38:                                               ; preds = %2, %5, %.thread
  %.0 = phi i32 [ %.1, %.thread ], [ %1, %5 ], [ -1, %2 ]
  ret i32 %.0
}